-----BEGIN CERTIFICATE-----
MIIDeTCCAmGgAwIBAgIUM4WmqKK7pqh7zhatTsUZlVwYHAcwDQYJKoZIhvcNAQEL
BQAwTDELMAkGA1UEBhMCV1cxEzARBgNVBAgMClNvbWUtU3RhdGUxEzARBgNVBAoM
ClJldHJvUGlsb3QxEzARBgNVBAMMCnJldHJvcGlsb3QwHhcNMjEwNTEzMTMwMjEw
WhcNMzEwNTExMTMwMjEwWjBMMQswCQYDVQQGEwJXVzETMBEGA1UECAwKU29tZS1T
dGF0ZTETMBEGA1UECgwKUmV0cm9QaWxvdDETMBEGA1UEAwwKcmV0cm9waWxvdDCC
ASIwDQYJKoZIhvcNAQEBBQADggEPADCCAQoCggEBAOZAGYdXNhj6T5nhueIKw2k2
eBfW4uCjrBkHRXxOUMGg/xs99QbLWzHCLzf0dZ8zWi3WykGeB14wYBQUaWdlvKIs
K0nnCVka+8nfUMgYvTBockpCbPCcU8Bw/m5420369s0zT2usZ8HvQOt0/JZAzb+W
RrSyhq+Ux8Ij4IW7wGS9pyiRo/9N1JTbOUkgOgo0n2fmBZ1yAZPZeqCkZbFxaHZj
Rc3EuP7TOQheHSg/XKToBoLWxRorHbMtGY+qU3TS+nzxhQPJs6AhE+Ntf4Pof6tV
ep6Lcv0fiQDXvgDsVgdmPg/GnO5C1YbkjyO2xdjhV1Wa5eEWHzLOWfoxUalFgbkC
AwEAAaNTMFEwHQYDVR0OBBYEFAJRfwdc2ww7LW/gNy7yOA3U7kAEMB8GA1UdIwQY
MBaAFAJRfwdc2ww7LW/gNy7yOA3U7kAEMA8GA1UdEwEB/wQFMAMBAf8wDQYJKoZI
hvcNAQELBQADggEBAEQ2+6hhNX82wkB3EPmVKz5alLarT2i7GX2yR9634R4eLax2
Ai79edp6KbICuC5KjTRd7e/mQcT/5/YYNy2ecwAG2fGK8HrtWJJjraAbBgnO+7o1
JCt+393F5IZ/iSFRWHTdudXdbcCcUhYs+KXBU572X731ihPsctgrn6VHZdDsK5tr
M/vMDEnYNYZLxxysSKeCAVFGRvTvMjLkmmnfjKOTp9j/2AWmGS+emmyleIRQt2N1
pkVP9b4hFb01L36nqiAf8zcg1yj56rMxfoC+Vaez6Guq0LaViw3/T/1luA0Yi+3z
eUicIixgGiRp8xmmVeJngUFIp0otP8P1LXVOf0k=
-----END CERTIFICATE-----
Certificate:
    Data:
        Version: 3 (0x2)
        Serial Number:
            33:85:a6:a8:a2:bb:a6:a8:7b:ce:16:ad:4e:c5:19:95:5c:18:1c:07
        Signature Algorithm: sha256WithRSAEncryption
        Issuer: C = WW, ST = Some-State, O = RetroPilot, CN = retropilot
        Validity
            Not Before: May 13 13:02:10 2021 GMT
            Not After : May 11 13:02:10 2031 GMT
        Subject: C = WW, ST = Some-State, O = RetroPilot, CN = retropilot
        Subject Public Key Info:
            Public Key Algorithm: rsaEncryption
                RSA Public-Key: (2048 bit)
                Modulus:
                    00:e6:40:19:87:57:36:18:fa:4f:99:e1:b9:e2:0a:
                    c3:69:36:78:17:d6:e2:e0:a3:ac:19:07:45:7c:4e:
                    50:c1:a0:ff:1b:3d:f5:06:cb:5b:31:c2:2f:37:f4:
                    75:9f:33:5a:2d:d6:ca:41:9e:07:5e:30:60:14:14:
                    69:67:65:bc:a2:2c:2b:49:e7:09:59:1a:fb:c9:df:
                    50:c8:18:bd:30:68:72:4a:42:6c:f0:9c:53:c0:70:
                    fe:6e:78:db:4d:fa:f6:cd:33:4f:6b:ac:67:c1:ef:
                    40:eb:74:fc:96:40:cd:bf:96:46:b4:b2:86:af:94:
                    c7:c2:23:e0:85:bb:c0:64:bd:a7:28:91:a3:ff:4d:
                    d4:94:db:39:49:20:3a:0a:34:9f:67:e6:05:9d:72:
                    01:93:d9:7a:a0:a4:65:b1:71:68:76:63:45:cd:c4:
                    b8:fe:d3:39:08:5e:1d:28:3f:5c:a4:e8:06:82:d6:
                    c5:1a:2b:1d:b3:2d:19:8f:aa:53:74:d2:fa:7c:f1:
                    85:03:c9:b3:a0:21:13:e3:6d:7f:83:e8:7f:ab:55:
                    7a:9e:8b:72:fd:1f:89:00:d7:be:00:ec:56:07:66:
                    3e:0f:c6:9c:ee:42:d5:86:e4:8f:23:b6:c5:d8:e1:
                    57:55:9a:e5:e1:16:1f:32:ce:59:fa:31:51:a9:45:
                    81:b9
                Exponent: 65537 (0x10001)
        X509v3 extensions:
            X509v3 Subject Key Identifier: 
                02:51:7F:07:5C:DB:0C:3B:2D:6F:E0:37:2E:F2:38:0D:D4:EE:40:04
            X509v3 Authority Key Identifier: 
                keyid:02:51:7F:07:5C:DB:0C:3B:2D:6F:E0:37:2E:F2:38:0D:D4:EE:40:04

            X509v3 Basic Constraints: critical
                CA:TRUE
    Signature Algorithm: sha256WithRSAEncryption
         44:36:fb:a8:61:35:7f:36:c2:40:77:10:f9:95:2b:3e:5a:94:
         b6:ab:4f:68:bb:19:7d:b2:47:de:b7:e1:1e:1e:2d:ac:76:02:
         2e:fd:79:da:7a:29:b2:02:b8:2e:4a:8d:34:5d:ed:ef:e6:41:
         c4:ff:e7:f6:18:37:2d:9e:73:00:06:d9:f1:8a:f0:7a:ed:58:
         92:63:ad:a0:1b:06:09:ce:fb:ba:35:24:2b:7e:df:dd:c5:e4:
         86:7f:89:21:51:58:74:dd:b9:d5:dd:6d:c0:9c:52:16:2c:f8:
         a5:c1:53:9e:f6:5f:bd:f5:8a:13:ec:72:d8:2b:9f:a5:47:65:
         d0:ec:2b:9b:6b:33:fb:cc:0c:49:d8:35:86:4b:c7:1c:ac:48:
         a7:82:01:51:46:46:f4:ef:32:32:e4:9a:69:df:8c:a3:93:a7:
         d8:ff:d8:05:a6:19:2f:9e:9a:6c:a5:78:84:50:b7:63:75:a6:
         45:4f:f5:be:21:15:bd:35:2f:7e:a7:aa:20:1f:f3:37:20:d7:
         28:f9:ea:b3:31:7e:80:be:55:a7:b3:e8:6b:aa:d0:b6:95:8b:
         0d:ff:4f:fd:65:b8:0d:18:8b:ed:f3:79:48:9c:22:2c:60:1a:
         24:69:f3:19:a6:55:e2:67:81:41:48:a7:4a:2d:3f:c3:f5:2d:
         75:4e:7f:49
SHA1 Fingerprint=53:77:69:82:80:D7:A7:87:FA:05:73:06:C7:79:82:AB:3A:1B:D0:7F
